target datalayout = "e-m:e-p270:32:32-p271:32:32-p272:64:64-i64:64-i128:128-f80:128-n8:16:32:64-S128"
target triple = "x86_64-pc-linux-gnu"

@.str.1114 = private unnamed_addr constant [24 x i8] c"%s: 0x%08x (%s: 0x%06x)\00", align 1
@.str.1115 = private unnamed_addr constant [20 x i8] c"unknown kind (%02x)\00", align 1
@.str.1116 = private unnamed_addr constant [16 x i8] c"%s: %s (0x%08x)\00", align 1

; Function Attrs: null_pointer_is_valid sspstrong uwtable
define internal void @rtps_util_add_generic_entity_id(ptr noundef %0, ptr noundef %1, i32 noundef %2, ptr noundef %3, i32 noundef %4, i32 noundef %5, i32 noundef %6, i32 noundef %7) #0 {
  %9 = alloca ptr, align 8
  %10 = alloca ptr, align 8
  %11 = alloca i32, align 4
  %12 = alloca ptr, align 8
  %13 = alloca i32, align 4
  %14 = alloca i32, align 4
  %15 = alloca i32, align 4
  %16 = alloca i32, align 4
  %17 = alloca i32, align 4
  %18 = alloca i32, align 4
  %19 = alloca i8, align 1
  %20 = alloca ptr, align 8
  %21 = alloca ptr, align 8
  %22 = alloca ptr, align 8
  store ptr %0, ptr %9, align 8
  store ptr %1, ptr %10, align 8
  store i32 %2, ptr %11, align 4
  store ptr %3, ptr %12, align 8
  store i32 %4, ptr %13, align 4
  store i32 %5, ptr %14, align 4
  store i32 %6, ptr %15, align 4
  store i32 %7, ptr %16, align 4
  call void @llvm.lifetime.start.p0(i64 4, ptr %17) #14
  %23 = load ptr, ptr %10, align 8
  %24 = load i32, ptr %11, align 4
  %25 = call i32 @tvb_get_ntohl(ptr noundef %23, i32 noundef %24)
  store i32 %25, ptr %17, align 4
  call void @llvm.lifetime.start.p0(i64 4, ptr %18) #14
  %26 = load i32, ptr %17, align 4
  %27 = lshr i32 %26, 8
  store i32 %27, ptr %18, align 4
  call void @llvm.lifetime.start.p0(i64 1, ptr %19) #14
  %28 = load i32, ptr %17, align 4
  %29 = and i32 %28, 255
  %30 = trunc i32 %29 to i8
  store i8 %30, ptr %19, align 1
  call void @llvm.lifetime.start.p0(i64 8, ptr %20) #14
  %31 = load i32, ptr %17, align 4
  %32 = call ptr @try_val_to_str(i32 noundef %31, ptr noundef @entity_id_vals)
  store ptr %32, ptr %20, align 8
  call void @llvm.lifetime.start.p0(i64 8, ptr %21) #14
  call void @llvm.lifetime.start.p0(i64 8, ptr %22) #14
  %33 = load ptr, ptr %20, align 8
  %34 = icmp eq ptr %33, null
  br i1 %34, label %35, label %48

35:                                               ; preds = %8
  %36 = load ptr, ptr %9, align 8
  %37 = load i32, ptr %13, align 4
  %38 = load ptr, ptr %10, align 8
  %39 = load i32, ptr %11, align 4
  %40 = load i32, ptr %17, align 4
  %41 = load ptr, ptr %12, align 8
  %42 = load i32, ptr %17, align 4
  %43 = load i8, ptr %19, align 1
  %44 = zext i8 %43 to i32
  %45 = call ptr @val_to_str(i32 noundef %44, ptr noundef @entity_kind_vals, ptr noundef @.str.1115)
  %46 = load i32, ptr %18, align 4
  %47 = call ptr (ptr, i32, ptr, i32, i32, i32, ptr, ...) @proto_tree_add_uint_format(ptr noundef %36, i32 noundef %37, ptr noundef %38, i32 noundef %39, i32 noundef 4, i32 noundef %40, ptr noundef @.str.1114, ptr noundef %41, i32 noundef %42, ptr noundef %45, i32 noundef %46)
  store ptr %47, ptr %21, align 8
  br label %58

48:                                               ; preds = %8
  %49 = load ptr, ptr %9, align 8
  %50 = load i32, ptr %13, align 4
  %51 = load ptr, ptr %10, align 8
  %52 = load i32, ptr %11, align 4
  %53 = load i32, ptr %17, align 4
  %54 = load ptr, ptr %12, align 8
  %55 = load ptr, ptr %20, align 8
  %56 = load i32, ptr %17, align 4
  %57 = call ptr (ptr, i32, ptr, i32, i32, i32, ptr, ...) @proto_tree_add_uint_format_value(ptr noundef %49, i32 noundef %50, ptr noundef %51, i32 noundef %52, i32 noundef 4, i32 noundef %53, ptr noundef @.str.1116, ptr noundef %54, ptr noundef %55, i32 noundef %56)
  store ptr %57, ptr %21, align 8
  br label %58

58:                                               ; preds = %48, %35
  %59 = load ptr, ptr %21, align 8
  %60 = load i32, ptr %16, align 4
  %61 = call ptr @proto_item_add_subtree(ptr noundef %59, i32 noundef %60)
  store ptr %61, ptr %22, align 8
  %62 = load ptr, ptr %22, align 8
  %63 = load i32, ptr %14, align 4
  %64 = load ptr, ptr %10, align 8
  %65 = load i32, ptr %11, align 4
  %66 = call ptr @proto_tree_add_item(ptr noundef %62, i32 noundef %63, ptr noundef %64, i32 noundef %65, i32 noundef 3, i32 noundef 0)
  %67 = load ptr, ptr %22, align 8
  %68 = load i32, ptr %15, align 4
  %69 = load ptr, ptr %10, align 8
  %70 = load i32, ptr %11, align 4
  %71 = add i32 %70, 3
  %72 = call ptr @proto_tree_add_item(ptr noundef %67, i32 noundef %68, ptr noundef %69, i32 noundef %71, i32 noundef 1, i32 noundef 0)
  call void @llvm.lifetime.end.p0(i64 8, ptr %22) #14
  call void @llvm.lifetime.end.p0(i64 8, ptr %21) #14
  call void @llvm.lifetime.end.p0(i64 8, ptr %20) #14
  call void @llvm.lifetime.end.p0(i64 1, ptr %19) #14
  call void @llvm.lifetime.end.p0(i64 4, ptr %18) #14
  call void @llvm.lifetime.end.p0(i64 4, ptr %17) #14
  ret void
}