; Function Attrs: null_pointer_is_valid sspstrong uwtable
define internal fastcc void @rtps_util_add_generic_entity_id(ptr noundef %0, ptr noundef %1, i32 noundef %2, ptr noundef %3, i32 noundef %4, i32 noundef %5, i32 noundef %6, i32 noundef %7) unnamed_addr #0 {
  %9 = tail call i32 @tvb_get_ntohl(ptr noundef %1, i32 noundef %2)
  %10 = tail call ptr @try_val_to_str(i32 noundef %9, ptr noundef nonnull @entity_id_vals)
  %11 = icmp eq ptr %10, null
  br i1 %11, label %12, label %17

12:                                               ; preds = %8
  %13 = lshr i32 %9, 8
  %14 = and i32 %9, 255
  %15 = tail call ptr @val_to_str(i32 noundef %14, ptr noundef nonnull @entity_kind_vals, ptr noundef nonnull @.str.1115)
  %16 = tail call ptr (ptr, i32, ptr, i32, i32, i32, ptr, ...) @proto_tree_add_uint_format(ptr noundef %0, i32 noundef %4, ptr noundef %1, i32 noundef %2, i32 noundef 4, i32 noundef %9, ptr noundef nonnull @.str.1114, ptr noundef %3, i32 noundef %9, ptr noundef %15, i32 noundef %13)
  br label %19

17:                                               ; preds = %8
  %18 = tail call ptr (ptr, i32, ptr, i32, i32, i32, ptr, ...) @proto_tree_add_uint_format_value(ptr noundef %0, i32 noundef %4, ptr noundef %1, i32 noundef %2, i32 noundef 4, i32 noundef %9, ptr noundef nonnull @.str.1116, ptr noundef %3, ptr noundef nonnull %10, i32 noundef %9)
  br label %19

19:                                               ; preds = %17, %12
  %.0 = phi ptr [ %16, %12 ], [ %18, %17 ]
  %20 = tail call ptr @proto_item_add_subtree(ptr noundef %.0, i32 noundef %7)
  %21 = tail call ptr @proto_tree_add_item(ptr noundef %20, i32 noundef %5, ptr noundef %1, i32 noundef %2, i32 noundef 3, i32 noundef 0)
  %22 = add i32 %2, 3
  %23 = tail call ptr @proto_tree_add_item(ptr noundef %20, i32 noundef %6, ptr noundef %1, i32 noundef %22, i32 noundef 1, i32 noundef 0)
  ret void
}